(dp0
S'16'
p1
(dp2
S'300x100000'
p3
(dp4
S'total'
p5
(lp6
F180.113277
aF145.962941
aF177.269188
aF144.957922
aF154.015289
aF202.396559
aF145.463817
aF157.159044
aF199.23917
aF158.383576
asS'solve'
p7
(lp8
F149.37880792
aF115.06052128
aF146.64821316
aF114.2432642
aF123.03318184
aF171.89954372
aF114.92392433
aF126.22323546
aF168.89751245
aF127.71046637
asS'factor'
p9
(lp10
F27.76130492
aF27.98783477
aF27.85374287
aF27.98529917
aF28.2055905
aF27.74870437
aF27.8005697
aF28.18991921
aF27.57291724
aF27.90974459
assS'100x10000'
p11
(dp12
g5
(lp13
F2.218974
aF2.250839
aF2.532953
aF3.462729
aF2.312628
aF2.372602
aF2.301485
aF3.507982
aF3.334188
aF2.249467
asg7
(lp14
F1.40763641
aF1.42586436
aF1.71978156
aF2.64367074
aF1.50528711
aF1.56546291
aF1.49467222
aF2.70727482
aF2.49584437
aF1.43820652
asg9
(lp15
F0.73293537
aF0.74975337
aF0.73804688
aF0.74294465
aF0.73206217
aF0.73113655
aF0.73144642
aF0.72347686
aF0.76064741
aF0.73517455
assS'10x100'
p16
(dp17
g5
(lp18
F0.231858
aF0.206874
aF0.231978
aF0.219129
aF0.212863
aF0.22087
aF0.220017
aF0.211417
aF0.218728
aF0.233411
asg7
(lp19
F0.00781435
aF0.00745938
aF0.02675962
aF0.00832984
aF0.0057338
aF0.00572311
aF0.0077601
aF0.00596757
aF0.00648498
aF0.01645343
asg9
(lp20
F0.22286377
aF0.19824743
aF0.20392949
aF0.20959229
aF0.20592685
aF0.21399309
aF0.21108574
aF0.20422823
aF0.2109555
aF0.21568608
assS'30x1000'
p21
(dp22
g5
(lp23
F0.404244
aF0.307878
aF0.31617
aF0.297525
aF0.313426
aF0.450291
aF0.29611
aF0.297587
aF0.340718
aF0.339375
asg7
(lp24
F0.13006999
aF0.03593013
aF0.04240875
aF0.02296392
aF0.04475497
aF0.17783895
aF0.02469275
aF0.030932
aF0.04937852
aF0.05522682
asg9
(lp25
F0.27084878
aF0.26871981
aF0.27041393
aF0.27133003
aF0.26541357
aF0.26914672
aF0.26807534
aF0.26339664
aF0.28739842
aF0.28066989
asssS'32'
p26
(dp27
g3
(dp28
g5
(lp29
F163.455742
aF145.512092
aF169.218811
aF157.364314
aF153.65484
aF195.105422
aF145.867765
aF153.306211
aF149.783883
aF195.596946
asg7
(lp30
F131.26878374
aF113.54935466
aF138.00041766
aF125.7416803
aF121.91914944
aF163.31794594
aF113.11738257
aF121.63989458
aF118.28415499
aF162.74428004
asg9
(lp31
F29.01905859
aF29.15358817
aF28.4141847
aF28.80331555
aF28.74104862
aF28.91423885
aF29.92491563
aF28.85474294
aF28.71675398
aF30.07205543
assg11
(dp32
g5
(lp33
F2.39252
aF2.571785
aF2.833155
aF6.413531
aF2.560258
aF2.850114
aF2.746389
aF6.585115
aF5.994577
aF2.532885
asg7
(lp34
F1.53328672
aF1.61225792
aF1.92954356
aF5.52138209
aF1.69523552
aF1.958227
aF1.86253436
aF5.68702753
aF5.028785
aF1.56422851
asg9
(lp35
F0.7859343
aF0.88481311
aF0.83047562
aF0.81859286
aF0.79153257
aF0.81868232
aF0.80873347
aF0.82454873
aF0.88970285
aF0.88528461
assg16
(dp36
g5
(lp37
F0.268943
aF0.266701
aF0.31603
aF0.269222
aF0.24379
aF0.28627
aF0.267697
aF0.262854
aF0.233329
aF0.259975
asg7
(lp38
F0.0146578
aF0.01633046
aF0.05768829
aF0.0151301
aF0.01194919
aF0.01257315
aF0.01646867
aF0.01238179
aF0.01229413
aF0.02793386
asg9
(lp39
F0.25272837
aF0.24900089
aF0.25690115
aF0.25230763
aF0.23027545
aF0.27226446
aF0.24983999
aF0.2491088
aF0.2195648
aF0.23072986
assg21
(dp40
g5
(lp41
F0.465383
aF0.359024
aF0.373526
aF0.337386
aF0.37122
aF0.603056
aF0.327412
aF0.351095
aF0.358273
aF0.376092
asg7
(lp42
F0.17548231
aF0.05879755
aF0.06626633
aF0.03516896
aF0.07411604
aF0.30227219
aF0.03712456
aF0.04781488
aF0.06827548
aF0.08253446
asg9
(lp43
F0.28641658
aF0.29672036
aF0.30378776
aF0.29880316
aF0.29357505
aF0.29732914
aF0.28689235
aF0.29995977
aF0.28643464
aF0.29007905
asssS'1'
p44
(dp45
g3
(dp46
g5
(lp47
F257.499664
aF227.934371
aF263.733251
aF221.775698
aF239.929842
aF309.695141
aF232.252576
aF223.281878
aF235.623854
aF238.735079
asg7
(lp48
F222.88984853
aF194.03364108
aF229.47890373
aF187.94785338
aF206.06881006
aF275.5821846
aF197.4702254
aF189.49569833
aF201.78095804
aF204.71433192
asg9
(lp49
F31.5495676
aF31.08124018
aF31.21139941
aF31.01623758
aF31.04288752
aF31.28926719
aF31.53152758
aF30.96255833
aF31.02605683
aF31.20662855
assg11
(dp50
g5
(lp51
F2.571425
aF2.593012
aF3.013058
aF4.358277
aF2.732665
aF2.792651
aF2.696509
aF4.410664
aF4.114012
aF2.61975
asg7
(lp52
F1.97278468
aF1.99722751
aF2.41713187
aF3.76261853
aF2.13760988
aF2.19715518
aF2.10074672
aF3.81124241
aF3.51846877
aF2.02328779
asg9
(lp53
F0.52278718
aF0.52127004
aF0.52142095
aF0.52114374
aF0.5204338
aF0.52092196
aF0.52122939
aF0.5247579
aF0.52104444
aF0.52207596
assg16
(dp54
g5
(lp55
F0.003539
aF0.003873
aF0.006268
aF0.003529
aF0.003322
aF0.003564
aF0.003744
aF0.003478
aF0.003474
aF0.004842
asg7
(lp56
F0.00101024
aF0.00136434
aF0.00375625
aF0.00109536
aF0.00086986
aF0.00101803
aF0.00125984
aF0.0010232
aF0.00099599
aF0.00239165
asg9
(lp57
F0.00154292
aF0.00152237
aF0.00152928
aF0.00148967
aF0.00149394
aF0.0015776
aF0.00151614
aF0.00150479
aF0.00151246
aF0.0015102
assg21
(dp58
g5
(lp59
F0.105474
aF0.039853
aF0.042798
aF0.031524
aF0.046303
aF0.147401
aF0.032558
aF0.036949
aF0.04291
aF0.050702
asg7
(lp60
F0.09167776
aF0.02612887
aF0.02896867
aF0.01775271
aF0.03250099
aF0.1336763
aF0.01877222
aF0.02321041
aF0.0290621
aF0.03695502
asg9
(lp61
F0.01066852
aF0.01063474
aF0.0106867
aF0.01063752
aF0.01069611
aF0.0106418
aF0.01068157
aF0.01063945
aF0.01070864
aF0.01064312
asssS'2'
p62
(dp63
g3
(dp64
g5
(lp65
F219.065542
aF176.105869
aF217.767635
aF176.445175
aF207.137521
aF245.642771
aF180.176715
aF173.123252
aF188.615141
aF183.467342
asg7
(lp66
F186.81272198
aF143.58650431
aF185.05362537
aF144.3035084
aF174.52933025
aF213.07928987
aF147.84323584
aF140.93676642
aF156.57496657
aF151.33986985
asg9
(lp67
F29.42114294
aF29.60738592
aF29.60903746
aF29.31808278
aF29.77749014
aF29.44773175
aF29.35482697
aF29.35088678
aF29.23952565
aF29.29623217
assg11
(dp68
g5
(lp69
F2.471903
aF2.4915
aF2.865479
aF4.059075
aF2.622349
aF2.662776
aF2.575616
aF4.046706
aF3.908696
aF2.496941
asg7
(lp70
F1.79249406
aF1.81340176
aF2.18802096
aF3.36028548
aF1.94390716
aF1.98526614
aF1.89594446
aF3.36571046
aF3.23030619
aF1.81725329
asg9
(lp71
F0.60535761
aF0.60231249
aF0.60255277
aF0.62337132
aF0.60240894
aF0.60240073
aF0.60414985
aF0.60576735
aF0.60340101
aF0.60429073
assg16
(dp72
g5
(lp73
F0.201402
aF0.200057
aF0.206786
aF0.201253
aF0.20177
aF0.200653
aF0.201636
aF0.200895
aF0.200945
aF0.204472
asg7
(lp74
F0.00269904
aF0.00300855
aF0.0092194
aF0.00273765
aF0.00209226
aF0.00216006
aF0.00289342
aF0.00230693
aF0.00260182
aF0.00603035
asg9
(lp75
F0.19766996
aF0.19602378
aF0.19649636
aF0.19750698
aF0.1986679
aF0.19746038
aF0.19771351
aF0.19757814
aF0.19731942
aF0.19741405
assg21
(dp76
g5
(lp77
F0.303873
aF0.235468
aF0.238341
aF0.228138
aF0.242053
aF0.343833
aF0.226458
aF0.231212
aF0.237648
aF0.245837
asg7
(lp78
F0.09568474
aF0.02717
aF0.02993733
aF0.01782971
aF0.03338202
aF0.13628752
aF0.01921115
aF0.02365507
aF0.03014149
aF0.03821241
asg9
(lp79
F0.20507357
aF0.20517256
aF0.20528064
aF0.20719026
aF0.20551825
aF0.20441175
aF0.20410928
aF0.20443741
aF0.20441278
aF0.20445749
asssS'4'
p80
(dp81
g3
(dp82
g5
(lp83
F186.280447
aF166.830528
aF200.035212
aF172.396665
aF173.414125
aF213.182523
aF167.220942
aF170.768846
aF192.852213
aF188.262877
asg7
(lp84
F154.82841015
aF135.68230025
aF168.0906369
aF140.61843687
aF141.90957464
aF181.68724175
aF135.66090677
aF139.60301428
aF160.97904269
aF156.33111792
asg9
(lp85
F28.73525264
aF28.39301493
aF29.20837809
aF29.0233491
aF28.76937971
aF28.74579694
aF28.82160248
aF28.44332577
aF29.11601682
aF28.90821432
assg11
(dp86
g5
(lp87
F2.228673
aF2.275366
aF2.501613
aF3.668838
aF3.669522
aF2.437708
aF2.440457
aF3.822787
aF3.50761
aF2.311284
asg7
(lp88
F1.49736132
aF1.5252902
aF1.76067605
aF2.93287155
aF2.92553894
aF1.68142691
aF1.69021504
aF3.07607205
aF2.76077308
aF1.56151795
asg9
(lp89
F0.6556862
aF0.6721447
aF0.66388702
aF0.65826173
aF0.66391675
aF0.67107222
aF0.67282422
aF0.66781688
aF0.66765155
aF0.668696
assg16
(dp90
g5
(lp91
F0.216065
aF0.213991
aF0.21929
aF0.201838
aF0.208162
aF0.208472
aF0.202229
aF0.21433
aF0.204257
aF0.212611
asg7
(lp92
F0.00302084
aF0.00346078
aF0.01121331
aF0.00326611
aF0.00319972
aF0.00257899
aF0.0036643
aF0.00280459
aF0.00309191
aF0.00755428
asg9
(lp93
F0.21193825
aF0.20932358
aF0.20675948
aF0.19730376
aF0.20368021
aF0.20466395
aF0.19733161
aF0.21031221
aF0.19994454
aF0.20394131
assg21
(dp94
g5
(lp95
F0.323848
aF0.244417
aF0.250434
aF0.244088
aF0.254164
aF0.369352
aF0.238956
aF0.232547
aF0.243297
aF0.259724
asg7
(lp96
F0.09535254
aF0.02506425
aF0.0297498
aF0.01759581
aF0.03276322
aF0.14747774
aF0.01835997
aF0.01571358
aF0.02774846
aF0.03261079
asg9
(lp97
F0.22525363
aF0.21607405
aF0.21739984
aF0.2227443
aF0.21815258
aF0.2186046
aF0.21741063
aF0.21349142
aF0.21232071
aF0.22384066
asssS'8'
p98
(dp99
g3
(dp100
g5
(lp101
F170.979935
aF154.960382
aF176.009406
aF146.717673
aF158.604133
aF203.568702
aF150.419264
aF150.12861
aF156.470065
aF165.243079
asg7
(lp102
F140.07147138
aF124.22385848
aF145.38203455
aF115.86111669
aF128.07683454
aF172.8956799
aF119.8931898
aF119.7880664
aF125.58725
aF134.52039102
asg9
(lp103
F27.85208427
aF27.87583214
aF27.66107524
aF28.01545434
aF27.6841473
aF27.83425957
aF27.68586261
aF27.48386765
aF28.03160719
aF27.88940727
assg11
(dp104
g5
(lp105
F2.248199
aF2.232904
aF2.498658
aF3.510513
aF2.417981
aF2.39043
aF2.287964
aF3.557281
aF3.303456
aF2.234401
asg7
(lp106
F1.47458936
aF1.47096668
aF1.72657792
aF2.75230783
aF1.6455426
aF1.60425537
aF1.52682968
aF2.78409482
aF2.5268039
aF1.45313454
asg9
(lp107
F0.68982692
aF0.68863979
aF0.69893749
aF0.68505177
aF0.69890243
aF0.71292582
aF0.68786094
aF0.70018424
aF0.70089111
aF0.69590941
assg16
(dp108
g5
(lp109
F0.216007
aF0.206121
aF0.221911
aF0.202253
aF0.200514
aF0.209685
aF0.212358
aF0.214532
aF0.203424
aF0.219342
asg7
(lp110
F0.00543504
aF0.00522405
aF0.01516064
aF0.00496558
aF0.00378223
aF0.00445397
aF0.00587252
aF0.00487352
aF0.00431711
aF0.01120639
asg9
(lp111
F0.20945437
aF0.19977393
aF0.20559488
aF0.19614098
aF0.19558338
aF0.20412081
aF0.20533032
aF0.20845733
aF0.1979796
aF0.20700955
assg21
(dp112
g5
(lp113
F0.333336
aF0.265658
aF0.275449
aF0.262102
aF0.275682
aF0.386013
aF0.25821
aF0.267795
aF0.27299
aF0.321239
asg7
(lp114
F0.09883288
aF0.02907347
aF0.03525726
aF0.02066398
aF0.03654781
aF0.14773877
aF0.02062772
aF0.02649298
aF0.03319349
aF0.04193702
asg9
(lp115
F0.23124273
aF0.23339168
aF0.23699671
aF0.23818049
aF0.23580875
aF0.23503609
aF0.23427987
aF0.23798816
aF0.23648201
aF0.27601117
asss.