(dp0
S'300x100000'
p1
(dp2
S'total'
p3
(lp4
F161.67477
aF142.463769
aF165.926309
aF138.279068
aF150.342188
aF196.723388
aF142.653244
aF139.441968
aF147.505678
aF149.226728
asS'solve'
p5
(lp6
F149.31657964
aF130.13372643
aF153.56149947
aF125.99852013
aF138.05174001
aF184.41663729
aF130.33402014
aF127.15900447
aF135.22760182
aF136.93039752
asS'factor'
p7
(lp8
ssS'100x10000'
p9
(dp10
g3
(lp11
F1.547243
aF1.558426
aF1.817308
aF2.697469
aF1.645377
aF1.684227
aF1.612849
aF2.718444
aF2.538043
aF1.558688
asg5
(lp12
F1.28621573
aF1.29864287
aF1.55845308
aF2.43812333
aF1.38765643
aF1.41954913
aF1.3566472
aF2.4594393
aF2.27838412
aF1.30168391
asg7
(lp13
ssS'10x100'
p14
(dp15
g3
(lp16
F0.00111
aF0.00136
aF0.001263
aF0.001164
aF0.001018
aF0.001097
aF0.001116
aF0.001143
aF0.00107
aF0.002025
asg5
(lp17
F0.00067107
aF0.00092774
aF0.00107651
aF0.00072434
aF0.00058634
aF0.00066877
aF0.00073505
aF0.00066399
aF0.00063881
aF0.00159465
asg7
(lp18
ssS'30x1000'
p19
(dp20
g3
(lp21
F0.053953
aF0.025476
aF0.027167
aF0.026061
aF0.029979
aF0.077695
aF0.018891
aF0.025297
aF0.023995
aF0.029101
asg5
(lp22
F0.04535996
aF0.01697261
aF0.01862442
aF0.01757366
aF0.02153644
aF0.06922169
aF0.0111448
aF0.01679053
aF0.01554063
aF0.02059206
asg7
(lp23
ss.