(dp0
S'300x100000'
p1
(dp2
S'total'
p3
(lp4
F935.843127
aF807.885104
aF1040.86182
aF974.226551
aF929.973623
aF1266.4904
aF937.014727
aF825.981506
aF920.802081
aF949.307176
asS'solve'
p5
(lp6
F934.59011505
aF806.63255277
aF1039.60989358
aF972.9613691
aF928.72034147
aF1265.23899177
aF935.76201334
aF824.7206973
aF919.54588414
aF948.05170545
asS'factor'
p7
(lp8
ssS'100x10000'
p9
(dp10
g3
(lp11
F8.070257
aF7.644025
aF10.31279
aF14.558822
aF8.082611
aF8.296221
aF8.80007
aF14.011286
aF13.860181
aF7.466239
asg5
(lp12
F8.03522626
aF7.6067972
aF10.27592021
aF14.52439597
aF8.0481091
aF8.26076032
aF8.76129124
aF13.97494143
aF13.82207764
aF7.42885685
asg7
(lp13
ssS'10x100'
p14
(dp15
g3
(lp16
F0.003008
aF0.004046
aF0.006442
aF0.003208
aF0.002492
aF0.003101
aF0.003731
aF0.003124
aF0.00299
aF0.006659
asg5
(lp17
F0.00286303
aF0.00390369
aF0.00630214
aF0.00306542
aF0.00234824
aF0.00295886
aF0.00358897
aF0.0029811
aF0.00284774
aF0.00651603
asg7
(lp18
ssS'30x1000'
p19
(dp20
g3
(lp21
F0.211273
aF0.065067
aF0.081477
aF0.052301
aF0.076602
aF0.298901
aF0.060873
aF0.062402
aF0.069882
aF0.088624
asg5
(lp22
F0.2090185
aF0.06282562
aF0.07921477
aF0.05006615
aF0.07440264
aF0.29667165
aF0.05865016
aF0.06017233
aF0.06764844
aF0.08637737
asg7
(lp23
ss.