(dp0
S'1'
p1
(dp2
S'total'
p3
(lp4
F274.312051
aF274.423765
aF274.085036
aF274.178048
aF274.129987
aF273.601755
aF273.741717
aF274.186692
aF274.027406
aF274.305855
asS'solve'
p5
(lp6
F140.66265237
aF140.87560018
aF140.6801501
aF140.57733905
aF140.60224986
aF140.36392273
aF140.55931598
aF140.57217247
aF140.47010396
aF140.70563939
asS'factor'
p7
(lp8
F126.21569134
aF126.10227544
aF126.03514419
aF126.13855522
aF126.08104694
aF125.86860382
aF125.82873719
aF126.1864481
aF126.12581466
aF126.16705619
assS'8'
p9
(dp10
g3
(lp11
F199.38088
aF204.182738
aF207.645106
aF203.006483
aF209.720222
aF205.604202
aF202.367513
aF206.286599
aF203.331984
aF202.478316
asg5
(lp12
F108.34181511
aF108.19519985
aF108.45726401
aF108.34036961
aF108.70864546
aF108.24116938
aF108.14848479
aF108.62083572
aF108.31473283
aF108.22521969
asg7
(lp13
F83.67512011
aF88.55174358
aF91.76097041
aF87.2243432
aF93.58358161
aF89.99548075
aF86.85232334
aF90.31312445
aF87.5851722
aF86.87200158
assS'2'
p14
(dp15
g3
(lp16
F190.032985
aF190.267033
aF190.309087
aF190.666849
aF190.697979
aF190.303743
aF189.949718
aF190.276985
aF190.387581
aF190.481468
asg5
(lp17
F110.70937955
aF110.86106777
aF110.82204023
aF111.03888195
aF111.00760551
aF110.81235184
aF110.7482066
aF110.85592046
aF110.78200521
aF110.84170394
asg7
(lp18
F71.9431113
aF71.9727454
aF72.061819
aF72.20100846
aF72.2511508
aF72.04776
aF71.840459
aF71.99449955
aF72.16807146
aF72.27307815
assS'4'
p19
(dp20
g3
(lp21
F162.997957
aF172.349171
aF167.292503
aF158.610198
aF158.208353
aF159.328314
aF158.107533
aF165.845042
aF160.93979
aF171.75108
asg5
(lp22
F105.53241391
aF105.5240776
aF105.48167431
aF105.58883778
aF105.4552821
aF105.47881289
aF105.51142752
aF105.43566353
aF105.38411378
aF105.37584624
asg7
(lp23
F50.03826468
aF59.46641308
aF54.38076082
aF45.66912464
aF45.40180621
aF46.48229116
aF45.24530151
aF52.96406896
aF48.1166265
aF59.02247482
ass.