(dp0
S'1'
p1
(dp2
S'total'
p3
(lp4
F366.1517
asS'solve'
p5
(lp6
F232.64841563
asS'factor'
p7
(lp8
F126.08273087
assS'8'
p9
(dp10
g3
(lp11
F272.414124
asg5
(lp12
F179.12777853
asg7
(lp13
F85.92752559
assS'2'
p14
(dp15
g3
(lp16
F262.790067
asg5
(lp17
F183.26595972
asg7
(lp18
F72.08045037
assS'4'
p19
(dp20
g3
(lp21
F227.093633
asg5
(lp22
F174.28869633
asg7
(lp23
F45.44077431
ass.