(dp0
S'1'
p1
(dp2
S'300x100000'
p3
(dp4
S'total'
p5
(lp6
F156.018611
aF137.892198
aF159.551225
aF134.549758
aF145.186025
aF188.042659
aF138.352787
aF135.368214
aF142.704831
aF144.269057
asS'solve'
p7
(lp8
F137.12221686
aF119.02452238
aF140.64717969
aF115.65271998
aF126.28923089
aF169.16645273
aF119.46715335
aF116.48578887
aF123.81490228
aF125.37394864
asS'factor'
p9
(lp10
F17.5192
aF17.4899
aF17.5305
aF17.5124
aF17.5191
aF17.4936
aF17.5094
aF17.506
aF17.5148
aF17.5093
assS'100x10000'
p11
(dp12
g5
(lp13
F1.575821
aF1.587171
aF1.850677
aF2.686951
aF1.674019
aF1.710329
aF1.652569
aF2.725825
aF2.531505
aF1.60444
asg7
(lp14
F1.2473501
aF1.26074469
aF1.52133671
aF2.36026419
aF1.34494253
aF1.38403967
aF1.32602052
aF2.39933811
aF2.20485703
aF1.27503163
asg9
(lp15
F0.2898
aF0.2875
aF0.29
aF0.2878
aF0.2903
aF0.2874
aF0.2876
aF0.2878
aF0.2877
aF0.2906
assS'10x100'
p16
(dp17
g5
(lp18
F0.001877
aF0.002021
aF0.003466
aF0.00194
aF0.001751
aF0.001884
aF0.002114
aF0.001851
aF0.001839
aF0.002673
asg7
(lp19
F0.00060726
aF0.00080977
aF0.00216155
aF0.00064269
aF0.00049278
aF0.00061505
aF0.00072958
aF0.00058937
aF0.00056854
aF0.00139726
asg9
(lp20
F0.0008
aF0.0008
aF0.0009
aF0.0009
aF0.0008
aF0.0008
aF0.0009
aF0.0008
aF0.0008
aF0.0008
assS'30x1000'
p21
(dp22
g5
(lp23
F0.059408
aF0.02236
aF0.024115
aF0.017961
aF0.025965
aF0.083623
aF0.018229
aF0.020722
aF0.024103
aF0.028396
asg7
(lp24
F0.05195614
aF0.01491738
aF0.01667787
aF0.01052504
aF0.0185437
aF0.07620541
aF0.01077084
aF0.01328136
aF0.01665561
aF0.02098493
asg9
(lp25
F0.0059
aF0.006
aF0.006
aF0.0059
aF0.0059
aF0.0059
aF0.006
aF0.006
aF0.006
aF0.0059
asssS'8'
p26
(dp27
g3
(dp28
g5
(lp29
F114.704575
aF102.02536
aF117.167458
aF99.698125
aF107.187459
aF137.136395
aF102.26998
aF100.650348
aF105.451555
aF106.667147
asg7
(lp30
F96.70983267
aF83.93993387
aF99.13459751
aF81.66187177
aF89.2021428
aF119.02631901
aF83.78856974
aF82.20577226
aF87.37475897
aF88.65073803
asg9
(lp31
F16.6156
aF16.613
aF16.649
aF16.6606
aF16.6031
aF16.6372
aF17.0142
aF17.0585
aF16.5994
aF16.6326
assg11
(dp32
g5
(lp33
F1.413246
aF1.414795
aF1.617307
aF2.282846
aF1.48545
aF1.497814
aF1.464379
aF2.270314
aF2.150122
aF1.433817
asg7
(lp34
F0.93880014
aF0.94729065
aF1.14452413
aF1.81305575
aF1.01184016
aF1.03301653
aF0.99164373
aF1.79843599
aF1.67791139
aF0.95995957
asg9
(lp35
F0.4355
aF0.4288
aF0.4341
aF0.4311
aF0.4348
aF0.4263
aF0.4341
aF0.4334
aF0.4337
aF0.4351
assg16
(dp36
g5
(lp37
F0.098734
aF0.10052
aF0.099041
aF0.096666
aF0.098445
aF0.099627
aF0.097452
aF0.09848
aF0.098952
aF0.100718
asg7
(lp38
F0.00116218
aF0.00151611
aF0.00403111
aF0.00122066
aF0.00094181
aF0.00105632
aF0.00132982
aF0.00107131
aF0.00111873
aF0.0026607
asg9
(lp39
F0.097
aF0.0984
aF0.0944
aF0.0949
aF0.0969
aF0.098
aF0.0955
aF0.0968
aF0.0972
aF0.0975
assg21
(dp40
g5
(lp41
F0.181568
aF0.158924
aF0.164678
aF0.163375
aF0.157039
aF0.220225
aF0.150637
aF0.160041
aF0.162612
aF0.162173
asg7
(lp42
F0.04573735
aF0.0134668
aF0.01478746
aF0.00896287
aF0.01659442
aF0.06614455
aF0.00949691
aF0.01178471
aF0.01469579
aF0.01866416
asg9
(lp43
F0.1339
aF0.1435
aF0.148
aF0.1525
aF0.1385
aF0.1521
aF0.1392
aF0.1463
aF0.146
aF0.1416
asssS'2'
p44
(dp45
g3
(dp46
g5
(lp47
F122.069838
aF108.370111
aF124.716633
aF105.762974
aF113.633153
aF145.820395
aF108.513971
aF106.299385
aF111.915481
aF113.377551
asg7
(lp48
F104.28083542
aF90.61706167
aF106.95801734
aF88.01847417
aF95.88206247
aF128.07285522
aF90.7602357
aF88.55005662
aF94.14108746
aF95.61629225
asg9
(lp49
F16.3955
aF16.3669
aF16.3799
aF16.3636
aF16.3764
aF16.3679
aF16.3729
aF16.3709
aF16.3946
aF16.3837
assg11
(dp50
g5
(lp51
F1.295347
aF1.311975
aF1.50762
aF2.154983
aF1.372036
aF1.403326
aF1.354247
aF2.173895
aF2.043015
aF1.313674
asg7
(lp52
F0.95442561
aF0.96828219
aF1.16310557
aF1.81193847
aF1.031277
aF1.05929921
aF1.01084958
aF1.83256194
aF1.70049135
aF0.97123824
asg9
(lp53
F0.3023
aF0.303
aF0.3048
aF0.3043
aF0.3016
aF0.3052
aF0.3047
aF0.3027
aF0.3034
aF0.3022
assg16
(dp54
g5
(lp55
F0.091228
aF0.090769
aF0.091085
aF0.088692
aF0.090329
aF0.09017
aF0.087675
aF0.087523
aF0.090235
aF0.091365
asg7
(lp56
F0.0007051
aF0.00088896
aF0.00248299
aF0.00074762
aF0.0005905
aF0.00068393
aF0.0008224
aF0.00068897
aF0.00067309
aF0.00164229
asg9
(lp57
F0.0901
aF0.0894
aF0.0881
aF0.0875
aF0.0893
aF0.0891
aF0.0864
aF0.0864
aF0.0891
aF0.0893
assg21
(dp58
g5
(lp59
F0.134472
aF0.104578
aF0.108154
aF0.100818
aF0.107432
aF0.153192
aF0.106076
aF0.103059
aF0.107917
aF0.111437
asg7
(lp60
F0.04219409
aF0.01225798
aF0.0134667
aF0.00827745
aF0.01508536
aF0.06121548
aF0.00909799
aF0.0108111
aF0.01356209
aF0.01721101
asg9
(lp61
F0.0907
aF0.0908
aF0.0931
aF0.091
aF0.0908
aF0.0904
aF0.0953
aF0.0907
aF0.0928
aF0.0927
asssS'4'
p62
(dp63
g3
(dp64
g5
(lp65
F112.765128
aF100.374826
aF115.168223
aF97.958388
aF105.18948
aF134.578757
aF100.543026
aF98.520739
aF103.444923
aF104.941087
asg7
(lp66
F95.39455636
aF83.02656655
aF97.81836152
aF80.62256981
aF87.92370746
aF117.18812764
aF83.27639606
aF81.16931606
aF86.18827329
aF87.57311138
asg9
(lp67
F15.9085
aF15.8831
aF15.8872
aF15.8707
aF15.8894
aF15.9253
aF15.8965
aF15.8768
aF15.885
aF15.9006
assg11
(dp68
g5
(lp69
F1.23346
aF1.252957
aF1.422529
aF2.006965
aF1.307098
aF1.324295
aF1.30094
aF2.010408
aF1.939999
aF1.258976
asg7
(lp70
F0.84667649
aF0.86601762
aF1.03494372
aF1.6208655
aF0.91827963
aF0.93351474
aF0.91200538
aF1.62378917
aF1.55335684
aF0.86583076
asg9
(lp71
F0.348
aF0.348
aF0.3489
aF0.3475
aF0.3501
aF0.3521
aF0.3504
aF0.3479
aF0.348
aF0.3544
assg16
(dp72
g5
(lp73
F0.093058
aF0.096251
aF0.09755
aF0.095107
aF0.095159
aF0.095069
aF0.09529
aF0.093184
aF0.095864
aF0.094222
asg7
(lp74
F0.000812
aF0.00098621
aF0.00281467
aF0.00087644
aF0.00067716
aF0.00074816
aF0.00095725
aF0.00078343
aF0.00079206
aF0.00189697
asg9
(lp75
F0.0918
aF0.0948
aF0.0943
aF0.0937
aF0.094
aF0.0938
aF0.0939
aF0.0919
aF0.0946
aF0.0918
assg21
(dp76
g5
(lp77
F0.137972
aF0.11193
aF0.112701
aF0.108121
aF0.113933
aF0.157654
aF0.109198
aF0.111471
aF0.112847
aF0.116525
asg7
(lp78
F0.0364454
aF0.01050319
aF0.01163231
aF0.00709516
aF0.01319354
aF0.05614704
aF0.00751076
aF0.00947836
aF0.01171475
aF0.01488343
asg9
(lp79
F0.0999
aF0.0998
aF0.0995
aF0.0994
aF0.0991
aF0.0998
aF0.1001
aF0.1004
aF0.0995
aF0.1
asss.